; Function Attrs: mustprogress uwtable
define void @_ZNK32pxrInternal_v0_24__pxrReserved__14Hf_PluginEntry7GetDescEPNS_12HfPluginDescE(ptr noundef nonnull align 8 dereferenceable(64) %0, ptr noundef %1) local_unnamed_addr #0 align 2 personality ptr @__gxx_personality_v0 {
  %3 = alloca %"class.pxrInternal_v0_24__pxrReserved__::TfToken", align 8
  %4 = tail call noundef nonnull align 8 dereferenceable(32) ptr @_ZNK32pxrInternal_v0_24__pxrReserved__6TfType11GetTypeNameB5cxx11Ev(ptr noundef nonnull align 8 dereferenceable(8) %0), !noalias !4
  call void @_ZN32pxrInternal_v0_24__pxrReserved__7TfTokenC1ERKNSt7__cxx1112basic_stringIcSt11char_traitsIcESaIcEEE(ptr noundef nonnull align 8 dereferenceable(8) %3, ptr noundef nonnull align 8 dereferenceable(32) %4)
  %.not.i = icmp eq ptr %3, %1
  br i1 %.not.i, label %_ZN32pxrInternal_v0_24__pxrReserved__7TfTokenaSEOS0_.exit, label %5

5:                                                ; preds = %2
  %6 = load ptr, ptr %1, align 8
  %7 = ptrtoint ptr %6 to i64
  %8 = and i64 %7, 7
  %.not.i.i = icmp eq i64 %8, 0
  br i1 %.not.i.i, label %_ZN32pxrInternal_v0_24__pxrReserved__7TfTokenaSEOS0_.exit.thread, label %9

9:                                                ; preds = %5
  %10 = and i64 %7, -8
  %11 = inttoptr i64 %10 to ptr
  %12 = atomicrmw sub ptr %11, i32 2 release, align 4
  br label %_ZN32pxrInternal_v0_24__pxrReserved__7TfTokenaSEOS0_.exit.thread

_ZN32pxrInternal_v0_24__pxrReserved__7TfTokenaSEOS0_.exit.thread: ; preds = %5, %9
  %13 = load i64, ptr %3, align 8
  store i64 %13, ptr %1, align 8
  store i64 0, ptr %3, align 8
  br label %_ZN32pxrInternal_v0_24__pxrReserved__7TfTokenD2Ev.exit

_ZN32pxrInternal_v0_24__pxrReserved__7TfTokenaSEOS0_.exit: ; preds = %2
  %.pre = load ptr, ptr %3, align 8
  %14 = ptrtoint ptr %.pre to i64
  %15 = and i64 %14, 7
  %.not.i.i4 = icmp eq i64 %15, 0
  br i1 %.not.i.i4, label %_ZN32pxrInternal_v0_24__pxrReserved__7TfTokenD2Ev.exit, label %16

16:                                               ; preds = %_ZN32pxrInternal_v0_24__pxrReserved__7TfTokenaSEOS0_.exit
  %17 = and i64 %14, -8
  %18 = inttoptr i64 %17 to ptr
  %19 = atomicrmw sub ptr %18, i32 2 release, align 4
  br label %_ZN32pxrInternal_v0_24__pxrReserved__7TfTokenD2Ev.exit

_ZN32pxrInternal_v0_24__pxrReserved__7TfTokenD2Ev.exit: ; preds = %_ZN32pxrInternal_v0_24__pxrReserved__7TfTokenaSEOS0_.exit.thread, %_ZN32pxrInternal_v0_24__pxrReserved__7TfTokenaSEOS0_.exit, %16
  %20 = getelementptr inbounds nuw i8, ptr %0, i64 8
  %21 = getelementptr inbounds nuw i8, ptr %1, i64 8
  %22 = call noundef nonnull align 8 dereferenceable(32) ptr @_ZNSt7__cxx1112basic_stringIcSt11char_traitsIcESaIcEEaSERKS4_(ptr noundef nonnull align 8 dereferenceable(32) %21, ptr noundef nonnull align 8 dereferenceable(32) %20)
  %23 = getelementptr inbounds nuw i8, ptr %0, i64 40
  %24 = load i32, ptr %23, align 8
  %25 = getelementptr inbounds nuw i8, ptr %1, i64 40
  store i32 %24, ptr %25, align 8
  ret void
}